; Function Attrs: mustprogress nofree norecurse nosync nounwind willreturn memory(argmem: write) uwtable
define dso_local noundef i32 @napi_get_node_version(ptr noundef writeonly %env, ptr noundef writeonly %result) local_unnamed_addr #11 {
entry:
  %cmp = icmp eq ptr %env, null
  br i1 %cmp, label %return, label %do.body1

do.body1:                                         ; preds = %entry
  %cmp2.not = icmp eq ptr %result, null
  br i1 %cmp2.not, label %if.then3, label %do.end5

if.then3:                                         ; preds = %do.body1
  %error_code1.i = getelementptr inbounds i8, ptr %env, i64 156
  store i32 1, ptr %error_code1.i, align 4
  %engine_error_code3.i = getelementptr inbounds i8, ptr %env, i64 152
  store i32 0, ptr %engine_error_code3.i, align 8
  %engine_reserved5.i = getelementptr inbounds i8, ptr %env, i64 144
  store ptr null, ptr %engine_reserved5.i, align 8
  br label %return

do.end5:                                          ; preds = %do.body1
  store ptr @_ZZ21napi_get_node_versionE7version, ptr %result, align 8
  %last_error.i = getelementptr inbounds i8, ptr %env, i64 136
  tail call void @llvm.memset.p0.i64(ptr noundef nonnull align 8 dereferenceable(24) %last_error.i, i8 0, i64 24, i1 false)
  br label %return

return:                                           ; preds = %entry, %do.end5, %if.then3
  %retval.0 = phi i32 [ 0, %do.end5 ], [ 1, %if.then3 ], [ 1, %entry ]
  ret i32 %retval.0
}